; Function Attrs: nounwind uwtable
define noalias nonnull ptr @l_Std_Time_Duration_ofNanoseconds(ptr noundef %0) local_unnamed_addr #0 {
  %2 = load ptr, ptr @l_Std_Time_Duration_ofNanoseconds___closed__1, align 8, !tbaa !4
  %3 = ptrtoint ptr %0 to i64
  %4 = and i64 %3, 1
  %.not.i = icmp eq i64 %4, 0
  br i1 %.not.i, label %.critedge.i11, label %5, !prof !8

5:                                                ; preds = %1
  %6 = ptrtoint ptr %2 to i64
  %7 = and i64 %6, 1
  %.not10.i = icmp eq i64 %7, 0
  br i1 %.not10.i, label %.critedge.i11, label %8, !prof !8

8:                                                ; preds = %5
  %9 = and i64 %6, 8589934590
  %10 = icmp eq i64 %9, 0
  br i1 %10, label %26, label %11

11:                                               ; preds = %8
  %12 = shl i64 %6, 31
  %13 = ashr i64 %12, 32
  %14 = shl i64 %3, 31
  %15 = ashr i64 %14, 32
  %16 = sdiv i64 %15, %13
  %17 = add nsw i64 %16, 2147483648
  %18 = icmp samesign ult i64 %17, 4294967296
  br i1 %18, label %19, label %24, !prof !14

19:                                               ; preds = %11
  %20 = shl nsw i64 %16, 1
  %21 = and i64 %20, 8589934590
  %22 = or disjoint i64 %21, 1
  %23 = inttoptr i64 %22 to ptr
  br label %26

24:                                               ; preds = %11
  %25 = tail call ptr @lean_big_int64_to_int(i64 noundef range(i64 -4611686016279904256, 4611686018427387905) %16) #3
  br label %26

26:                                               ; preds = %24, %19, %8
  %.1.i15.ph = phi ptr [ inttoptr (i64 1 to ptr), %8 ], [ %23, %19 ], [ %25, %24 ]
  %27 = shl i64 %6, 31
  %28 = icmp ult i64 %27, 4294967296
  br i1 %28, label %lean_int_mod.exit, label %29

29:                                               ; preds = %26
  %30 = ashr i64 %27, 32
  %31 = shl i64 %3, 31
  %32 = ashr i64 %31, 32
  %33 = srem i64 %32, %30
  %34 = shl nsw i64 %33, 1
  %35 = and i64 %34, 8589934590
  %36 = or disjoint i64 %35, 1
  %37 = inttoptr i64 %36 to ptr
  br label %lean_int_mod.exit

.critedge.i11:                                    ; preds = %5, %1
  %38 = tail call ptr @lean_int_big_div(ptr noundef %0, ptr noundef %2) #3
  %39 = tail call ptr @lean_int_big_mod(ptr noundef %0, ptr noundef %2) #3
  br label %lean_int_mod.exit

lean_int_mod.exit:                                ; preds = %26, %29, %.critedge.i11
  %.1.i13 = phi ptr [ %38, %.critedge.i11 ], [ %.1.i15.ph, %26 ], [ %.1.i15.ph, %29 ]
  %.1.i10 = phi ptr [ %39, %.critedge.i11 ], [ %0, %26 ], [ %37, %29 ]
  tail call void @lean_inc_heartbeat() #3
  %40 = tail call noalias ptr @mi_malloc_small(i64 noundef 24) #3
  %41 = icmp eq ptr %40, null
  br i1 %41, label %42, label %lean_alloc_ctor.exit

42:                                               ; preds = %lean_int_mod.exit
  tail call void @lean_internal_panic_out_of_memory() #4
  unreachable

lean_alloc_ctor.exit:                             ; preds = %lean_int_mod.exit
  %43 = getelementptr inbounds nuw i8, ptr %40, i64 4
  store i32 1, ptr %40, align 4, !tbaa !9
  store i32 131096, ptr %43, align 4
  %44 = getelementptr inbounds nuw i8, ptr %40, i64 8
  store ptr %.1.i13, ptr %44, align 8, !tbaa !4
  %45 = getelementptr inbounds nuw i8, ptr %40, i64 16
  store ptr %.1.i10, ptr %45, align 8, !tbaa !4
  ret ptr %40
}